; Function Attrs: mustprogress nofree nounwind willreturn memory(argmem: read) uwtable
define internal range(i32 0, 2) i32 @dictSdsKeyCompare(ptr readnone captures(none) %0, ptr noundef readonly captures(none) %1, ptr noundef readonly captures(none) %2) #26 {
  %4 = getelementptr inbounds i8, ptr %1, i64 -1
  %5 = load i8, ptr %4, align 1, !tbaa !67
  %6 = zext i8 %5 to i32
  %7 = and i32 %6, 7
  switch i32 %7, label %hi_sdslen.exit [
    i32 0, label %8
    i32 1, label %11
    i32 2, label %15
    i32 3, label %19
    i32 4, label %23
  ]

8:                                                ; preds = %3
  %9 = lshr i32 %6, 3
  %10 = zext nneg i32 %9 to i64
  br label %hi_sdslen.exit

11:                                               ; preds = %3
  %12 = getelementptr inbounds i8, ptr %1, i64 -3
  %13 = load i8, ptr %12, align 1, !tbaa !67
  %14 = zext i8 %13 to i64
  br label %hi_sdslen.exit

15:                                               ; preds = %3
  %16 = getelementptr inbounds i8, ptr %1, i64 -5
  %17 = load i16, ptr %16, align 1, !tbaa !68
  %18 = zext i16 %17 to i64
  br label %hi_sdslen.exit

19:                                               ; preds = %3
  %20 = getelementptr inbounds i8, ptr %1, i64 -9
  %21 = load i32, ptr %20, align 1, !tbaa !22
  %22 = zext i32 %21 to i64
  br label %hi_sdslen.exit

23:                                               ; preds = %3
  %24 = getelementptr inbounds i8, ptr %1, i64 -17
  %25 = load i64, ptr %24, align 1, !tbaa !20
  br label %hi_sdslen.exit

hi_sdslen.exit:                                   ; preds = %3, %8, %11, %15, %19, %23
  %.0.i = phi i64 [ %25, %23 ], [ %22, %19 ], [ %18, %15 ], [ %14, %11 ], [ %10, %8 ], [ 0, %3 ]
  %26 = trunc i64 %.0.i to i32
  %27 = getelementptr inbounds i8, ptr %2, i64 -1
  %28 = load i8, ptr %27, align 1, !tbaa !67
  %29 = zext i8 %28 to i32
  %30 = and i32 %29, 7
  switch i32 %30, label %hi_sdslen.exit9 [
    i32 0, label %31
    i32 1, label %34
    i32 2, label %38
    i32 3, label %42
    i32 4, label %46
  ]

31:                                               ; preds = %hi_sdslen.exit
  %32 = lshr i32 %29, 3
  %33 = zext nneg i32 %32 to i64
  br label %hi_sdslen.exit9

34:                                               ; preds = %hi_sdslen.exit
  %35 = getelementptr inbounds i8, ptr %2, i64 -3
  %36 = load i8, ptr %35, align 1, !tbaa !67
  %37 = zext i8 %36 to i64
  br label %hi_sdslen.exit9

38:                                               ; preds = %hi_sdslen.exit
  %39 = getelementptr inbounds i8, ptr %2, i64 -5
  %40 = load i16, ptr %39, align 1, !tbaa !68
  %41 = zext i16 %40 to i64
  br label %hi_sdslen.exit9

42:                                               ; preds = %hi_sdslen.exit
  %43 = getelementptr inbounds i8, ptr %2, i64 -9
  %44 = load i32, ptr %43, align 1, !tbaa !22
  %45 = zext i32 %44 to i64
  br label %hi_sdslen.exit9

46:                                               ; preds = %hi_sdslen.exit
  %47 = getelementptr inbounds i8, ptr %2, i64 -17
  %48 = load i64, ptr %47, align 1, !tbaa !20
  br label %hi_sdslen.exit9

hi_sdslen.exit9:                                  ; preds = %hi_sdslen.exit, %31, %34, %38, %42, %46
  %.0.i8 = phi i64 [ %48, %46 ], [ %45, %42 ], [ %41, %38 ], [ %37, %34 ], [ %33, %31 ], [ 0, %hi_sdslen.exit ]
  %49 = trunc i64 %.0.i8 to i32
  %.not = icmp eq i32 %26, %49
  br i1 %.not, label %50, label %54

50:                                               ; preds = %hi_sdslen.exit9
  %sext = shl i64 %.0.i, 32
  %51 = ashr exact i64 %sext, 32
  %bcmp = tail call i32 @bcmp(ptr nonnull %1, ptr nonnull %2, i64 %51)
  %52 = icmp eq i32 %bcmp, 0
  %53 = zext i1 %52 to i32
  br label %54

54:                                               ; preds = %hi_sdslen.exit9, %50
  %.0 = phi i32 [ %53, %50 ], [ 0, %hi_sdslen.exit9 ]
  ret i32 %.0
}